; Function Attrs: nounwind uwtable
define range(i32 -2, 1) i32 @inflateReset2(ptr noundef captures(address) %0, i32 noundef %1) local_unnamed_addr #2 {
  %3 = icmp eq ptr %0, null
  br i1 %3, label %inflateReset.exit, label %4

4:                                                ; preds = %2
  %5 = getelementptr inbounds nuw i8, ptr %0, i64 64
  %6 = load ptr, ptr %5, align 8, !tbaa !3
  %7 = icmp eq ptr %6, null
  br i1 %7, label %inflateReset.exit, label %8

8:                                                ; preds = %4
  %9 = getelementptr inbounds nuw i8, ptr %0, i64 72
  %10 = load ptr, ptr %9, align 8, !tbaa !12
  %11 = icmp eq ptr %10, null
  br i1 %11, label %inflateReset.exit, label %12

12:                                               ; preds = %8
  %13 = getelementptr inbounds nuw i8, ptr %0, i64 56
  %14 = load ptr, ptr %13, align 8, !tbaa !13
  %15 = icmp eq ptr %14, null
  br i1 %15, label %inflateReset.exit, label %16

16:                                               ; preds = %12
  %17 = load ptr, ptr %14, align 8, !tbaa !14
  %.not.i = icmp eq ptr %17, %0
  br i1 %.not.i, label %inflateStateCheck.exit, label %inflateReset.exit

inflateStateCheck.exit:                           ; preds = %16
  %18 = getelementptr inbounds nuw i8, ptr %14, i64 8
  %19 = load i32, ptr %18, align 8, !tbaa !18
  %20 = add i32 %19, -16180
  %or.cond.i = icmp ult i32 %20, 32
  br i1 %or.cond.i, label %21, label %inflateReset.exit

21:                                               ; preds = %inflateStateCheck.exit
  %22 = icmp slt i32 %1, 0
  br i1 %22, label %23, label %27

23:                                               ; preds = %21
  %24 = icmp samesign ult i32 %1, -15
  br i1 %24, label %inflateReset.exit, label %25

25:                                               ; preds = %23
  %26 = sub nsw i32 0, %1
  br label %select.unfold

27:                                               ; preds = %21
  %28 = lshr i32 %1, 4
  %29 = add nuw nsw i32 %28, 5
  %30 = icmp samesign ult i32 %1, 48
  %31 = and i32 %1, 15
  %spec.select = select i1 %30, i32 %31, i32 %1
  br label %select.unfold

select.unfold:                                    ; preds = %27, %25
  %.025 = phi i32 [ %26, %25 ], [ %spec.select, %27 ]
  %.024 = phi i32 [ 0, %25 ], [ %29, %27 ]
  switch i32 %.025, label %inflateReset.exit [
    i32 15, label %32
    i32 14, label %32
    i32 13, label %32
    i32 12, label %32
    i32 11, label %32
    i32 10, label %32
    i32 9, label %32
    i32 8, label %32
    i32 0, label %32
  ]

32:                                               ; preds = %select.unfold, %select.unfold, %select.unfold, %select.unfold, %select.unfold, %select.unfold, %select.unfold, %select.unfold, %select.unfold
  %33 = getelementptr inbounds nuw i8, ptr %14, i64 72
  %34 = load ptr, ptr %33, align 8, !tbaa !38
  %.not29 = icmp eq ptr %34, null
  br i1 %.not29, label %.thread, label %35

35:                                               ; preds = %32
  %36 = getelementptr inbounds nuw i8, ptr %14, i64 56
  %37 = load i32, ptr %36, align 8, !tbaa !39
  %.not30 = icmp eq i32 %37, %.025
  br i1 %.not30, label %.thread, label %40

.thread:                                          ; preds = %32, %35
  %38 = getelementptr inbounds nuw i8, ptr %14, i64 16
  store i32 %.024, ptr %38, align 8, !tbaa !21
  %39 = getelementptr inbounds nuw i8, ptr %14, i64 56
  store i32 %.025, ptr %39, align 8, !tbaa !39
  br label %46

40:                                               ; preds = %35
  %41 = getelementptr inbounds nuw i8, ptr %0, i64 80
  %42 = load ptr, ptr %41, align 8, !tbaa !40
  tail call void %10(ptr noundef %42, ptr noundef nonnull %34) #9
  store ptr null, ptr %33, align 8, !tbaa !38
  %.pre = load ptr, ptr %5, align 8, !tbaa !3
  %43 = icmp eq ptr %.pre, null
  %44 = getelementptr inbounds nuw i8, ptr %14, i64 16
  store i32 %.024, ptr %44, align 8, !tbaa !21
  %45 = getelementptr inbounds nuw i8, ptr %14, i64 56
  store i32 %.025, ptr %45, align 8, !tbaa !39
  br i1 %43, label %inflateReset.exit, label %46

46:                                               ; preds = %.thread, %40
  %47 = load ptr, ptr %9, align 8, !tbaa !12
  %48 = icmp eq ptr %47, null
  br i1 %48, label %inflateReset.exit, label %49

49:                                               ; preds = %46
  %50 = load ptr, ptr %13, align 8, !tbaa !13
  %51 = icmp eq ptr %50, null
  br i1 %51, label %inflateReset.exit, label %52

52:                                               ; preds = %49
  %53 = load ptr, ptr %50, align 8, !tbaa !14
  %.not.i.i = icmp eq ptr %53, %0
  br i1 %.not.i.i, label %inflateStateCheck.exit.i, label %inflateReset.exit

inflateStateCheck.exit.i:                         ; preds = %52
  %54 = getelementptr inbounds nuw i8, ptr %50, i64 8
  %55 = load i32, ptr %54, align 8, !tbaa !18
  %56 = add i32 %55, -16180
  %or.cond.i.i = icmp ult i32 %56, 32
  br i1 %or.cond.i.i, label %57, label %inflateReset.exit

57:                                               ; preds = %inflateStateCheck.exit.i
  %58 = getelementptr inbounds nuw i8, ptr %50, i64 60
  store i32 0, ptr %58, align 4, !tbaa !35
  %59 = getelementptr inbounds nuw i8, ptr %50, i64 64
  store i32 0, ptr %59, align 8, !tbaa !36
  %60 = getelementptr inbounds nuw i8, ptr %50, i64 68
  store i32 0, ptr %60, align 4, !tbaa !37
  %61 = getelementptr inbounds nuw i8, ptr %50, i64 40
  store i64 0, ptr %61, align 8, !tbaa !19
  %62 = getelementptr inbounds nuw i8, ptr %0, i64 40
  %63 = getelementptr inbounds nuw i8, ptr %0, i64 16
  store i64 0, ptr %63, align 8, !tbaa !20
  %64 = getelementptr inbounds nuw i8, ptr %50, i64 16
  tail call void @llvm.memset.p0.i64(ptr noundef nonnull align 8 dereferenceable(16) %62, i8 0, i64 16, i1 false)
  %65 = load i32, ptr %64, align 8, !tbaa !21
  %.not24.i.i = icmp eq i32 %65, 0
  br i1 %.not24.i.i, label %70, label %66

66:                                               ; preds = %57
  %67 = and i32 %65, 1
  %68 = zext nneg i32 %67 to i64
  %69 = getelementptr inbounds nuw i8, ptr %0, i64 96
  store i64 %68, ptr %69, align 8, !tbaa !22
  br label %70

70:                                               ; preds = %66, %57
  store i32 16180, ptr %54, align 8, !tbaa !18
  %71 = getelementptr inbounds nuw i8, ptr %50, i64 12
  store i32 0, ptr %71, align 4, !tbaa !23
  %72 = getelementptr inbounds nuw i8, ptr %50, i64 20
  store i32 0, ptr %72, align 4, !tbaa !24
  %73 = getelementptr inbounds nuw i8, ptr %50, i64 24
  store i32 -1, ptr %73, align 8, !tbaa !25
  %74 = getelementptr inbounds nuw i8, ptr %50, i64 28
  store i32 32768, ptr %74, align 4, !tbaa !26
  %75 = getelementptr inbounds nuw i8, ptr %50, i64 48
  store ptr null, ptr %75, align 8, !tbaa !27
  %76 = getelementptr inbounds nuw i8, ptr %50, i64 80
  store i64 0, ptr %76, align 8, !tbaa !28
  %77 = getelementptr inbounds nuw i8, ptr %50, i64 88
  store i32 0, ptr %77, align 8, !tbaa !29
  %78 = getelementptr inbounds nuw i8, ptr %50, i64 1368
  %79 = getelementptr inbounds nuw i8, ptr %50, i64 144
  store ptr %78, ptr %79, align 8, !tbaa !30
  %80 = getelementptr inbounds nuw i8, ptr %50, i64 112
  store ptr %78, ptr %80, align 8, !tbaa !31
  %81 = getelementptr inbounds nuw i8, ptr %50, i64 104
  store ptr %78, ptr %81, align 8, !tbaa !32
  %82 = getelementptr inbounds nuw i8, ptr %50, i64 7144
  store i32 1, ptr %82, align 8, !tbaa !33
  %83 = getelementptr inbounds nuw i8, ptr %50, i64 7148
  store i32 -1, ptr %83, align 4, !tbaa !34
  br label %inflateReset.exit

inflateReset.exit:                                ; preds = %12, %16, %2, %4, %8, %70, %inflateStateCheck.exit.i, %52, %49, %46, %40, %select.unfold, %23, %inflateStateCheck.exit
  %.0 = phi i32 [ -2, %inflateStateCheck.exit ], [ -2, %23 ], [ -2, %select.unfold ], [ -2, %inflateStateCheck.exit.i ], [ 0, %70 ], [ -2, %46 ], [ -2, %40 ], [ -2, %52 ], [ -2, %49 ], [ -2, %8 ], [ -2, %4 ], [ -2, %2 ], [ -2, %16 ], [ -2, %12 ]
  ret i32 %.0
}